target datalayout = "e-m:e-p270:32:32-p271:32:32-p272:64:64-i64:64-i128:128-f80:128-n8:16:32:64-S128"
target triple = "x86_64-unknown-linux-gnu"

%"class.cineon::Codec" = type { ptr, ptr }
%"struct.cineon::GenericHeader" = type { i32, i32, i32, i32, i32, i32, [8 x i8], [100 x i8], [12 x i8], [12 x i8], [36 x i8], i8, i8, [2 x i8], [8 x %"struct.cineon::ImageElement"], [2 x float], [2 x float], [2 x float], [2 x float], [200 x i8], [28 x i8], i8, i8, i8, i8, i32, i32, [20 x i8], i32, i32, [100 x i8], [12 x i8], [12 x i8], [64 x i8], [32 x i8], [32 x i8], float, float, float, [40 x i8] }
%"struct.cineon::ImageElement" = type { [2 x i8], i8, i8, i32, i32, float, float, float, float }

; Function Attrs: mustprogress uwtable
define linkonce_odr hidden noundef zeroext i1 @_ZN6cineon14ReadImageBlockINS_17ElementReadStreamEEEbRKNS_6HeaderEPjPT_RKNS_5BlockEPvNS_8DataSizeE(ptr noundef nonnull align 4 dereferenceable(2048) %dpxHeader, ptr noundef %readBuf, ptr noundef %fd, ptr noundef nonnull align 4 dereferenceable(16) %block, ptr noundef %data, i32 noundef %size) #6 comdat {
entry:
  %retval = alloca i1, align 1
  %dpxHeader.addr = alloca ptr, align 8
  %readBuf.addr = alloca ptr, align 8
  %fd.addr = alloca ptr, align 8
  %block.addr = alloca ptr, align 8
  %data.addr = alloca ptr, align 8
  %size.addr = alloca i32, align 4
  store ptr %dpxHeader, ptr %dpxHeader.addr, align 8
  store ptr %readBuf, ptr %readBuf.addr, align 8
  store ptr %fd, ptr %fd.addr, align 8
  store ptr %block, ptr %block.addr, align 8
  store ptr %data, ptr %data.addr, align 8
  store i32 %size, ptr %size.addr, align 4
  %0 = load i32, ptr %size.addr, align 4
  %cmp = icmp eq i32 %0, 0
  br i1 %cmp, label %if.then, label %if.else

if.then:                                          ; preds = %entry
  %1 = load ptr, ptr %dpxHeader.addr, align 8
  %2 = load ptr, ptr %readBuf.addr, align 8
  %3 = load ptr, ptr %fd.addr, align 8
  %4 = load ptr, ptr %block.addr, align 8
  %5 = load ptr, ptr %data.addr, align 8
  %call = call noundef zeroext i1 @_ZN6cineon14ReadImageBlockINS_17ElementReadStreamEhLNS_8DataSizeE0EEEbRKNS_6HeaderEPjPT_RKNS_5BlockEPT0_(ptr noundef nonnull align 4 dereferenceable(2048) %1, ptr noundef %2, ptr noundef %3, ptr noundef nonnull align 4 dereferenceable(16) %4, ptr noundef %5)
  store i1 %call, ptr %retval, align 1
  br label %return

if.else:                                          ; preds = %entry
  %6 = load i32, ptr %size.addr, align 4
  %cmp1 = icmp eq i32 %6, 1
  br i1 %cmp1, label %if.then2, label %if.else4

if.then2:                                         ; preds = %if.else
  %7 = load ptr, ptr %dpxHeader.addr, align 8
  %8 = load ptr, ptr %readBuf.addr, align 8
  %9 = load ptr, ptr %fd.addr, align 8
  %10 = load ptr, ptr %block.addr, align 8
  %11 = load ptr, ptr %data.addr, align 8
  %call3 = call noundef zeroext i1 @_ZN6cineon14ReadImageBlockINS_17ElementReadStreamEtLNS_8DataSizeE1EEEbRKNS_6HeaderEPjPT_RKNS_5BlockEPT0_(ptr noundef nonnull align 4 dereferenceable(2048) %7, ptr noundef %8, ptr noundef %9, ptr noundef nonnull align 4 dereferenceable(16) %10, ptr noundef %11)
  store i1 %call3, ptr %retval, align 1
  br label %return

if.else4:                                         ; preds = %if.else
  %12 = load i32, ptr %size.addr, align 4
  %cmp5 = icmp eq i32 %12, 2
  br i1 %cmp5, label %if.then6, label %if.else8

if.then6:                                         ; preds = %if.else4
  %13 = load ptr, ptr %dpxHeader.addr, align 8
  %14 = load ptr, ptr %readBuf.addr, align 8
  %15 = load ptr, ptr %fd.addr, align 8
  %16 = load ptr, ptr %block.addr, align 8
  %17 = load ptr, ptr %data.addr, align 8
  %call7 = call noundef zeroext i1 @_ZN6cineon14ReadImageBlockINS_17ElementReadStreamEjLNS_8DataSizeE2EEEbRKNS_6HeaderEPjPT_RKNS_5BlockEPT0_(ptr noundef nonnull align 4 dereferenceable(2048) %13, ptr noundef %14, ptr noundef %15, ptr noundef nonnull align 4 dereferenceable(16) %16, ptr noundef %17)
  store i1 %call7, ptr %retval, align 1
  br label %return

if.else8:                                         ; preds = %if.else4
  %18 = load i32, ptr %size.addr, align 4
  %cmp9 = icmp eq i32 %18, 3
  br i1 %cmp9, label %if.then10, label %if.end

if.then10:                                        ; preds = %if.else8
  %19 = load ptr, ptr %dpxHeader.addr, align 8
  %20 = load ptr, ptr %readBuf.addr, align 8
  %21 = load ptr, ptr %fd.addr, align 8
  %22 = load ptr, ptr %block.addr, align 8
  %23 = load ptr, ptr %data.addr, align 8
  %call11 = call noundef zeroext i1 @_ZN6cineon14ReadImageBlockINS_17ElementReadStreamEmLNS_8DataSizeE3EEEbRKNS_6HeaderEPjPT_RKNS_5BlockEPT0_(ptr noundef nonnull align 4 dereferenceable(2048) %19, ptr noundef %20, ptr noundef %21, ptr noundef nonnull align 4 dereferenceable(16) %22, ptr noundef %23)
  store i1 %call11, ptr %retval, align 1
  br label %return

if.end:                                           ; preds = %if.else8
  br label %if.end12

if.end12:                                         ; preds = %if.end
  br label %if.end13

if.end13:                                         ; preds = %if.end12
  br label %if.end14

if.end14:                                         ; preds = %if.end13
  store i1 false, ptr %retval, align 1
  br label %return

return:                                           ; preds = %if.end14, %if.then10, %if.then6, %if.then2, %if.then
  %24 = load i1, ptr %retval, align 1
  ret i1 %24
}

; Function Attrs: mustprogress nounwind uwtable
define linkonce_odr hidden noundef zeroext i8 @_ZNK6cineon13GenericHeader8BitDepthEi(ptr noundef nonnull align 4 dereferenceable(1024) %this, i32 noundef %i) #1 comdat align 2 {
entry:
  %retval = alloca i8, align 1
  %this.addr = alloca ptr, align 8
  %i.addr = alloca i32, align 4
  store ptr %this, ptr %this.addr, align 8
  store i32 %i, ptr %i.addr, align 4
  %this1 = load ptr, ptr %this.addr, align 8
  %0 = load i32, ptr %i.addr, align 4
  %cmp = icmp slt i32 %0, 0
  br i1 %cmp, label %if.then, label %lor.lhs.false

lor.lhs.false:                                    ; preds = %entry
  %1 = load i32, ptr %i.addr, align 4
  %cmp2 = icmp sge i32 %1, 8
  br i1 %cmp2, label %if.then, label %if.end

if.then:                                          ; preds = %lor.lhs.false, %entry
  store i8 -1, ptr %retval, align 1
  br label %return

if.end:                                           ; preds = %lor.lhs.false
  %chan = getelementptr inbounds %"struct.cineon::GenericHeader", ptr %this1, i32 0, i32 14
  %2 = load i32, ptr %i.addr, align 4
  %idxprom = sext i32 %2 to i64
  %arrayidx = getelementptr inbounds [8 x %"struct.cineon::ImageElement"], ptr %chan, i64 0, i64 %idxprom
  %bitDepth = getelementptr inbounds %"struct.cineon::ImageElement", ptr %arrayidx, i32 0, i32 1
  %3 = load i8, ptr %bitDepth, align 2
  store i8 %3, ptr %retval, align 1
  br label %return

return:                                           ; preds = %if.end, %if.then
  %4 = load i8, ptr %retval, align 1
  ret i8 %4
}

; Function Attrs: mustprogress nounwind uwtable
define linkonce_odr hidden noundef zeroext i8 @_ZNK6cineon13GenericHeader16NumberOfElementsEv(ptr noundef nonnull align 4 dereferenceable(1024) %this) #1 comdat align 2 {
entry:
  %this.addr = alloca ptr, align 8
  store ptr %this, ptr %this.addr, align 8
  %this1 = load ptr, ptr %this.addr, align 8
  %numberOfElements = getelementptr inbounds %"struct.cineon::GenericHeader", ptr %this1, i32 0, i32 12
  %0 = load i8, ptr %numberOfElements, align 1
  ret i8 %0
}

; Function Attrs: mustprogress uwtable
define hidden noundef zeroext i1 @_ZN6cineon5Codec4ReadERKNS_6HeaderEPNS_17ElementReadStreamERKNS_5BlockEPvNS_8DataSizeE(ptr noundef nonnull align 8 dereferenceable(16) %this, ptr noundef nonnull align 4 dereferenceable(2048) %dpxHeader, ptr noundef %fd, ptr noundef nonnull align 4 dereferenceable(16) %block, ptr noundef %data, i32 noundef %size) unnamed_addr #6 align 2 {
entry:
  %this.addr = alloca ptr, align 8
  %dpxHeader.addr = alloca ptr, align 8
  %fd.addr = alloca ptr, align 8
  %block.addr = alloca ptr, align 8
  %data.addr = alloca ptr, align 8
  %size.addr = alloca i32, align 4
  %numberOfComponents = alloca i32, align 4
  %bitDepth = alloca i32, align 4
  %slsize = alloca i32, align 4
  store ptr %this, ptr %this.addr, align 8
  store ptr %dpxHeader, ptr %dpxHeader.addr, align 8
  store ptr %fd, ptr %fd.addr, align 8
  store ptr %block, ptr %block.addr, align 8
  store ptr %data, ptr %data.addr, align 8
  store i32 %size, ptr %size.addr, align 4
  %this1 = load ptr, ptr %this.addr, align 8
  %scanline = getelementptr inbounds %"class.cineon::Codec", ptr %this1, i32 0, i32 1
  %0 = load ptr, ptr %scanline, align 8
  %cmp = icmp eq ptr %0, null
  br i1 %cmp, label %if.then, label %if.end

if.then:                                          ; preds = %entry
  %1 = load ptr, ptr %dpxHeader.addr, align 8
  %call = call noundef zeroext i8 @_ZNK6cineon13GenericHeader16NumberOfElementsEv(ptr noundef nonnull align 4 dereferenceable(1024) %1)
  %conv = zext i8 %call to i32
  store i32 %conv, ptr %numberOfComponents, align 4
  %2 = load ptr, ptr %dpxHeader.addr, align 8
  %call2 = call noundef zeroext i8 @_ZNK6cineon13GenericHeader8BitDepthEi(ptr noundef nonnull align 4 dereferenceable(1024) %2, i32 noundef 0)
  %conv3 = zext i8 %call2 to i32
  store i32 %conv3, ptr %bitDepth, align 4
  %3 = load i32, ptr %numberOfComponents, align 4
  %4 = load ptr, ptr %dpxHeader.addr, align 8
  %call4 = call noundef i32 @_ZNK6cineon6Header5WidthEv(ptr noundef nonnull align 4 dereferenceable(2048) %4)
  %mul = mul i32 %3, %call4
  %5 = load i32, ptr %bitDepth, align 4
  %div = sdiv i32 %5, 8
  %6 = load i32, ptr %bitDepth, align 4
  %rem = srem i32 %6, 8
  %tobool = icmp ne i32 %rem, 0
  %cond = select i1 %tobool, i32 1, i32 0
  %add = add nsw i32 %div, %cond
  %mul5 = mul i32 %mul, %add
  %conv6 = zext i32 %mul5 to i64
  %div7 = udiv i64 %conv6, 4
  %add8 = add i64 %div7, 1
  %conv9 = trunc i64 %add8 to i32
  store i32 %conv9, ptr %slsize, align 4
  %7 = load i32, ptr %slsize, align 4
  %conv10 = sext i32 %7 to i64
  %8 = call { i64, i1 } @llvm.umul.with.overflow.i64(i64 %conv10, i64 4)
  %9 = extractvalue { i64, i1 } %8, 1
  %10 = extractvalue { i64, i1 } %8, 0
  %11 = select i1 %9, i64 -1, i64 %10
  %call11 = call noalias noundef nonnull ptr @_Znam(i64 noundef %11) #10
  %scanline12 = getelementptr inbounds %"class.cineon::Codec", ptr %this1, i32 0, i32 1
  store ptr %call11, ptr %scanline12, align 8
  br label %if.end

if.end:                                           ; preds = %if.then, %entry
  %12 = load ptr, ptr %dpxHeader.addr, align 8
  %scanline13 = getelementptr inbounds %"class.cineon::Codec", ptr %this1, i32 0, i32 1
  %13 = load ptr, ptr %scanline13, align 8
  %14 = load ptr, ptr %fd.addr, align 8
  %15 = load ptr, ptr %block.addr, align 8
  %16 = load ptr, ptr %data.addr, align 8
  %17 = load i32, ptr %size.addr, align 4
  %call14 = call noundef zeroext i1 @_ZN6cineon14ReadImageBlockINS_17ElementReadStreamEEEbRKNS_6HeaderEPjPT_RKNS_5BlockEPvNS_8DataSizeE(ptr noundef nonnull align 4 dereferenceable(2048) %12, ptr noundef %13, ptr noundef %14, ptr noundef nonnull align 4 dereferenceable(16) %15, ptr noundef %16, i32 noundef %17)
  ret i1 %call14
}