; Function Attrs: mustprogress uwtable
define hidden noundef zeroext i1 @_ZN6cineon5Codec4ReadERKNS_6HeaderEPNS_17ElementReadStreamERKNS_5BlockEPvNS_8DataSizeE(ptr nocapture noundef nonnull align 8 dereferenceable(16) %this, ptr noundef nonnull align 4 dereferenceable(2048) %dpxHeader, ptr noundef %fd, ptr noundef nonnull align 4 dereferenceable(16) %block, ptr noundef %data, i32 noundef %size) unnamed_addr #6 align 2 {
entry:
  %scanline = getelementptr inbounds i8, ptr %this, i64 8
  %0 = load ptr, ptr %scanline, align 8
  %cmp = icmp eq ptr %0, null
  br i1 %cmp, label %if.then, label %if.end

if.then:                                          ; preds = %entry
  %numberOfElements.i = getelementptr inbounds i8, ptr %dpxHeader, i64 193
  %1 = load i8, ptr %numberOfElements.i, align 1
  %conv = zext i8 %1 to i32
  %bitDepth.i = getelementptr inbounds i8, ptr %dpxHeader, i64 198
  %2 = load i8, ptr %bitDepth.i, align 2
  %conv3 = zext i8 %2 to i32
  %call4 = tail call noundef i32 @_ZNK6cineon6Header5WidthEv(ptr noundef nonnull align 4 dereferenceable(2048) %dpxHeader)
  %mul = mul i32 %call4, %conv
  %div5 = lshr i32 %conv3, 3
  %rem = and i32 %conv3, 7
  %tobool.not = icmp ne i32 %rem, 0
  %cond = zext i1 %tobool.not to i32
  %add = add nuw nsw i32 %div5, %cond
  %mul5 = mul i32 %mul, %add
  %3 = lshr i32 %mul5, 2
  %narrow = add nuw nsw i32 %3, 1
  %conv10 = zext nneg i32 %narrow to i64
  %4 = shl nuw nsw i64 %conv10, 2
  %call11 = tail call noalias noundef nonnull ptr @_Znam(i64 noundef %4) #10
  store ptr %call11, ptr %scanline, align 8
  br label %if.end

if.end:                                           ; preds = %if.then, %entry
  %5 = phi ptr [ %call11, %if.then ], [ %0, %entry ]
  switch i32 %size, label %_ZN6cineon14ReadImageBlockINS_17ElementReadStreamEEEbRKNS_6HeaderEPjPT_RKNS_5BlockEPvNS_8DataSizeE.exit [
    i32 0, label %if.then.i
    i32 1, label %if.then2.i
    i32 2, label %if.then6.i
    i32 3, label %if.then10.i
  ]

if.then.i:                                        ; preds = %if.end
  %call.i = tail call noundef zeroext i1 @_ZN6cineon14ReadImageBlockINS_17ElementReadStreamEhLNS_8DataSizeE0EEEbRKNS_6HeaderEPjPT_RKNS_5BlockEPT0_(ptr noundef nonnull align 4 dereferenceable(2048) %dpxHeader, ptr noundef nonnull %5, ptr noundef %fd, ptr noundef nonnull align 4 dereferenceable(16) %block, ptr noundef %data)
  br label %_ZN6cineon14ReadImageBlockINS_17ElementReadStreamEEEbRKNS_6HeaderEPjPT_RKNS_5BlockEPvNS_8DataSizeE.exit

if.then2.i:                                       ; preds = %if.end
  %call3.i = tail call noundef zeroext i1 @_ZN6cineon14ReadImageBlockINS_17ElementReadStreamEtLNS_8DataSizeE1EEEbRKNS_6HeaderEPjPT_RKNS_5BlockEPT0_(ptr noundef nonnull align 4 dereferenceable(2048) %dpxHeader, ptr noundef nonnull %5, ptr noundef %fd, ptr noundef nonnull align 4 dereferenceable(16) %block, ptr noundef %data)
  br label %_ZN6cineon14ReadImageBlockINS_17ElementReadStreamEEEbRKNS_6HeaderEPjPT_RKNS_5BlockEPvNS_8DataSizeE.exit

if.then6.i:                                       ; preds = %if.end
  %call7.i = tail call noundef zeroext i1 @_ZN6cineon14ReadImageBlockINS_17ElementReadStreamEjLNS_8DataSizeE2EEEbRKNS_6HeaderEPjPT_RKNS_5BlockEPT0_(ptr noundef nonnull align 4 dereferenceable(2048) %dpxHeader, ptr noundef nonnull %5, ptr noundef %fd, ptr noundef nonnull align 4 dereferenceable(16) %block, ptr noundef %data)
  br label %_ZN6cineon14ReadImageBlockINS_17ElementReadStreamEEEbRKNS_6HeaderEPjPT_RKNS_5BlockEPvNS_8DataSizeE.exit

if.then10.i:                                      ; preds = %if.end
  %call11.i = tail call noundef zeroext i1 @_ZN6cineon14ReadImageBlockINS_17ElementReadStreamEmLNS_8DataSizeE3EEEbRKNS_6HeaderEPjPT_RKNS_5BlockEPT0_(ptr noundef nonnull align 4 dereferenceable(2048) %dpxHeader, ptr noundef nonnull %5, ptr noundef %fd, ptr noundef nonnull align 4 dereferenceable(16) %block, ptr noundef %data)
  br label %_ZN6cineon14ReadImageBlockINS_17ElementReadStreamEEEbRKNS_6HeaderEPjPT_RKNS_5BlockEPvNS_8DataSizeE.exit

_ZN6cineon14ReadImageBlockINS_17ElementReadStreamEEEbRKNS_6HeaderEPjPT_RKNS_5BlockEPvNS_8DataSizeE.exit: ; preds = %if.end, %if.then.i, %if.then2.i, %if.then6.i, %if.then10.i
  %retval.0.i = phi i1 [ %call.i, %if.then.i ], [ %call3.i, %if.then2.i ], [ %call7.i, %if.then6.i ], [ %call11.i, %if.then10.i ], [ false, %if.end ]
  ret i1 %retval.0.i
}